target datalayout = "e-m:e-p270:32:32-p271:32:32-p272:64:64-i64:64-i128:128-f80:128-n8:16:32:64-S128"
target triple = "x86_64-pc-linux-gnu"

%struct.archive_entry_linkresolver = type { ptr, ptr, i64, i64, i32 }
%struct.links_entry = type { ptr, ptr, ptr, ptr, i64, i32 }

; Function Attrs: nounwind uwtable
define dso_local void @archive_entry_linkify(ptr noundef %0, ptr noundef %1, ptr noundef %2) #0 {
  %4 = alloca ptr, align 8
  %5 = alloca ptr, align 8
  %6 = alloca ptr, align 8
  %7 = alloca ptr, align 8
  %8 = alloca ptr, align 8
  %9 = alloca i32, align 4
  store ptr %0, ptr %4, align 8, !tbaa !4
  store ptr %1, ptr %5, align 8, !tbaa !32
  store ptr %2, ptr %6, align 8, !tbaa !32
  call void @llvm.lifetime.start.p0(i64 8, ptr %7) #5
  call void @llvm.lifetime.start.p0(i64 8, ptr %8) #5
  %10 = load ptr, ptr %6, align 8, !tbaa !32
  store ptr null, ptr %10, align 8, !tbaa !34
  %11 = load ptr, ptr %5, align 8, !tbaa !32
  %12 = load ptr, ptr %11, align 8, !tbaa !34
  %13 = icmp eq ptr %12, null
  br i1 %13, label %14, label %27

14:                                               ; preds = %3
  %15 = load ptr, ptr %4, align 8, !tbaa !4
  %16 = call ptr @next_entry(ptr noundef %15, i32 noundef 1)
  store ptr %16, ptr %7, align 8, !tbaa !18
  %17 = load ptr, ptr %7, align 8, !tbaa !18
  %18 = icmp ne ptr %17, null
  br i1 %18, label %19, label %26

19:                                               ; preds = %14
  %20 = load ptr, ptr %7, align 8, !tbaa !18
  %21 = getelementptr inbounds nuw %struct.links_entry, ptr %20, i32 0, i32 3
  %22 = load ptr, ptr %21, align 8, !tbaa !19
  %23 = load ptr, ptr %5, align 8, !tbaa !32
  store ptr %22, ptr %23, align 8, !tbaa !34
  %24 = load ptr, ptr %7, align 8, !tbaa !18
  %25 = getelementptr inbounds nuw %struct.links_entry, ptr %24, i32 0, i32 3
  store ptr null, ptr %25, align 8, !tbaa !19
  br label %26

26:                                               ; preds = %19, %14
  store i32 1, ptr %9, align 4
  br label %150

27:                                               ; preds = %3
  %28 = load ptr, ptr %5, align 8, !tbaa !32
  %29 = load ptr, ptr %28, align 8, !tbaa !34
  %30 = call i32 @archive_entry_nlink(ptr noundef %29)
  %31 = icmp eq i32 %30, 1
  br i1 %31, label %32, label %33

32:                                               ; preds = %27
  store i32 1, ptr %9, align 4
  br label %150

33:                                               ; preds = %27
  %34 = load ptr, ptr %5, align 8, !tbaa !32
  %35 = load ptr, ptr %34, align 8, !tbaa !34
  %36 = call i32 @archive_entry_filetype(ptr noundef %35)
  %37 = icmp eq i32 %36, 16384
  br i1 %37, label %48, label %38

38:                                               ; preds = %33
  %39 = load ptr, ptr %5, align 8, !tbaa !32
  %40 = load ptr, ptr %39, align 8, !tbaa !34
  %41 = call i32 @archive_entry_filetype(ptr noundef %40)
  %42 = icmp eq i32 %41, 24576
  br i1 %42, label %48, label %43

43:                                               ; preds = %38
  %44 = load ptr, ptr %5, align 8, !tbaa !32
  %45 = load ptr, ptr %44, align 8, !tbaa !34
  %46 = call i32 @archive_entry_filetype(ptr noundef %45)
  %47 = icmp eq i32 %46, 8192
  br i1 %47, label %48, label %49

48:                                               ; preds = %43, %38, %33
  store i32 1, ptr %9, align 4
  br label %150

49:                                               ; preds = %43
  %50 = load ptr, ptr %4, align 8, !tbaa !4
  %51 = getelementptr inbounds nuw %struct.archive_entry_linkresolver, ptr %50, i32 0, i32 4
  %52 = load i32, ptr %51, align 8, !tbaa !17
  switch i32 %52, label %148 [
    i32 0, label %53
    i32 1, label %75
    i32 2, label %95
    i32 3, label %96
  ]

53:                                               ; preds = %49
  %54 = load ptr, ptr %4, align 8, !tbaa !4
  %55 = load ptr, ptr %5, align 8, !tbaa !32
  %56 = load ptr, ptr %55, align 8, !tbaa !34
  %57 = call ptr @find_entry(ptr noundef %54, ptr noundef %56)
  store ptr %57, ptr %7, align 8, !tbaa !18
  %58 = load ptr, ptr %7, align 8, !tbaa !18
  %59 = icmp ne ptr %58, null
  br i1 %59, label %60, label %69

60:                                               ; preds = %53
  %61 = load ptr, ptr %5, align 8, !tbaa !32
  %62 = load ptr, ptr %61, align 8, !tbaa !34
  call void @archive_entry_unset_size(ptr noundef %62)
  %63 = load ptr, ptr %5, align 8, !tbaa !32
  %64 = load ptr, ptr %63, align 8, !tbaa !34
  %65 = load ptr, ptr %7, align 8, !tbaa !18
  %66 = getelementptr inbounds nuw %struct.links_entry, ptr %65, i32 0, i32 2
  %67 = load ptr, ptr %66, align 8, !tbaa !25
  %68 = call ptr @archive_entry_pathname(ptr noundef %67)
  call void @archive_entry_copy_hardlink(ptr noundef %64, ptr noundef %68)
  br label %74

69:                                               ; preds = %53
  %70 = load ptr, ptr %4, align 8, !tbaa !4
  %71 = load ptr, ptr %5, align 8, !tbaa !32
  %72 = load ptr, ptr %71, align 8, !tbaa !34
  %73 = call ptr @insert_entry(ptr noundef %70, ptr noundef %72)
  br label %74

74:                                               ; preds = %69, %60
  store i32 1, ptr %9, align 4
  br label %150

75:                                               ; preds = %49
  %76 = load ptr, ptr %4, align 8, !tbaa !4
  %77 = load ptr, ptr %5, align 8, !tbaa !32
  %78 = load ptr, ptr %77, align 8, !tbaa !34
  %79 = call ptr @find_entry(ptr noundef %76, ptr noundef %78)
  store ptr %79, ptr %7, align 8, !tbaa !18
  %80 = load ptr, ptr %7, align 8, !tbaa !18
  %81 = icmp ne ptr %80, null
  br i1 %81, label %82, label %89

82:                                               ; preds = %75
  %83 = load ptr, ptr %5, align 8, !tbaa !32
  %84 = load ptr, ptr %83, align 8, !tbaa !34
  %85 = load ptr, ptr %7, align 8, !tbaa !18
  %86 = getelementptr inbounds nuw %struct.links_entry, ptr %85, i32 0, i32 2
  %87 = load ptr, ptr %86, align 8, !tbaa !25
  %88 = call ptr @archive_entry_pathname(ptr noundef %87)
  call void @archive_entry_copy_hardlink(ptr noundef %84, ptr noundef %88)
  br label %94

89:                                               ; preds = %75
  %90 = load ptr, ptr %4, align 8, !tbaa !4
  %91 = load ptr, ptr %5, align 8, !tbaa !32
  %92 = load ptr, ptr %91, align 8, !tbaa !34
  %93 = call ptr @insert_entry(ptr noundef %90, ptr noundef %92)
  br label %94

94:                                               ; preds = %89, %82
  store i32 1, ptr %9, align 4
  br label %150

95:                                               ; preds = %49
  store i32 1, ptr %9, align 4
  br label %150

96:                                               ; preds = %49
  %97 = load ptr, ptr %4, align 8, !tbaa !4
  %98 = load ptr, ptr %5, align 8, !tbaa !32
  %99 = load ptr, ptr %98, align 8, !tbaa !34
  %100 = call ptr @find_entry(ptr noundef %97, ptr noundef %99)
  store ptr %100, ptr %7, align 8, !tbaa !18
  %101 = load ptr, ptr %7, align 8, !tbaa !18
  %102 = icmp ne ptr %101, null
  br i1 %102, label %103, label %133

103:                                              ; preds = %96
  %104 = load ptr, ptr %5, align 8, !tbaa !32
  %105 = load ptr, ptr %104, align 8, !tbaa !34
  store ptr %105, ptr %8, align 8, !tbaa !34
  %106 = load ptr, ptr %7, align 8, !tbaa !18
  %107 = getelementptr inbounds nuw %struct.links_entry, ptr %106, i32 0, i32 3
  %108 = load ptr, ptr %107, align 8, !tbaa !19
  %109 = load ptr, ptr %5, align 8, !tbaa !32
  store ptr %108, ptr %109, align 8, !tbaa !34
  %110 = load ptr, ptr %8, align 8, !tbaa !34
  %111 = load ptr, ptr %7, align 8, !tbaa !18
  %112 = getelementptr inbounds nuw %struct.links_entry, ptr %111, i32 0, i32 3
  store ptr %110, ptr %112, align 8, !tbaa !19
  %113 = load ptr, ptr %5, align 8, !tbaa !32
  %114 = load ptr, ptr %113, align 8, !tbaa !34
  call void @archive_entry_unset_size(ptr noundef %114)
  %115 = load ptr, ptr %5, align 8, !tbaa !32
  %116 = load ptr, ptr %115, align 8, !tbaa !34
  %117 = load ptr, ptr %7, align 8, !tbaa !18
  %118 = getelementptr inbounds nuw %struct.links_entry, ptr %117, i32 0, i32 2
  %119 = load ptr, ptr %118, align 8, !tbaa !25
  %120 = call ptr @archive_entry_pathname(ptr noundef %119)
  call void @archive_entry_copy_hardlink(ptr noundef %116, ptr noundef %120)
  %121 = load ptr, ptr %7, align 8, !tbaa !18
  %122 = getelementptr inbounds nuw %struct.links_entry, ptr %121, i32 0, i32 5
  %123 = load i32, ptr %122, align 8, !tbaa !35
  %124 = icmp eq i32 %123, 0
  br i1 %124, label %125, label %132

125:                                              ; preds = %103
  %126 = load ptr, ptr %7, align 8, !tbaa !18
  %127 = getelementptr inbounds nuw %struct.links_entry, ptr %126, i32 0, i32 3
  %128 = load ptr, ptr %127, align 8, !tbaa !19
  %129 = load ptr, ptr %6, align 8, !tbaa !32
  store ptr %128, ptr %129, align 8, !tbaa !34
  %130 = load ptr, ptr %7, align 8, !tbaa !18
  %131 = getelementptr inbounds nuw %struct.links_entry, ptr %130, i32 0, i32 3
  store ptr null, ptr %131, align 8, !tbaa !19
  br label %132

132:                                              ; preds = %125, %103
  br label %147

133:                                              ; preds = %96
  %134 = load ptr, ptr %4, align 8, !tbaa !4
  %135 = load ptr, ptr %5, align 8, !tbaa !32
  %136 = load ptr, ptr %135, align 8, !tbaa !34
  %137 = call ptr @insert_entry(ptr noundef %134, ptr noundef %136)
  store ptr %137, ptr %7, align 8, !tbaa !18
  %138 = load ptr, ptr %7, align 8, !tbaa !18
  %139 = icmp eq ptr %138, null
  br i1 %139, label %140, label %141

140:                                              ; preds = %133
  store i32 1, ptr %9, align 4
  br label %150

141:                                              ; preds = %133
  %142 = load ptr, ptr %5, align 8, !tbaa !32
  %143 = load ptr, ptr %142, align 8, !tbaa !34
  %144 = load ptr, ptr %7, align 8, !tbaa !18
  %145 = getelementptr inbounds nuw %struct.links_entry, ptr %144, i32 0, i32 3
  store ptr %143, ptr %145, align 8, !tbaa !19
  %146 = load ptr, ptr %5, align 8, !tbaa !32
  store ptr null, ptr %146, align 8, !tbaa !34
  br label %147

147:                                              ; preds = %141, %132
  store i32 1, ptr %9, align 4
  br label %150

148:                                              ; preds = %49
  br label %149

149:                                              ; preds = %148
  store i32 1, ptr %9, align 4
  br label %150

150:                                              ; preds = %149, %147, %140, %95, %94, %74, %48, %32, %26
  call void @llvm.lifetime.end.p0(i64 8, ptr %8) #5
  call void @llvm.lifetime.end.p0(i64 8, ptr %7) #5
  ret void
}