; Function Attrs: nounwind uwtable
define dso_local void @archive_entry_linkify(ptr noundef captures(none) %0, ptr noundef captures(none) %1, ptr noundef writeonly captures(none) initializes((0, 8)) %2) local_unnamed_addr #4 {
  store ptr null, ptr %2, align 8, !tbaa !28
  %4 = load ptr, ptr %1, align 8, !tbaa !28
  %5 = icmp eq ptr %4, null
  br i1 %5, label %6, label %11

6:                                                ; preds = %3
  %7 = tail call fastcc ptr @next_entry(ptr noundef %0, i32 noundef 1)
  %.not55 = icmp eq ptr %7, null
  br i1 %.not55, label %73, label %8

8:                                                ; preds = %6
  %9 = getelementptr inbounds nuw i8, ptr %7, i64 24
  %10 = load ptr, ptr %9, align 8, !tbaa !19
  store ptr %10, ptr %1, align 8, !tbaa !28
  store ptr null, ptr %9, align 8, !tbaa !19
  br label %73

11:                                               ; preds = %3
  %12 = tail call i32 @archive_entry_nlink(ptr noundef nonnull %4) #7
  %13 = icmp eq i32 %12, 1
  br i1 %13, label %73, label %14

14:                                               ; preds = %11
  %15 = load ptr, ptr %1, align 8, !tbaa !28
  %16 = tail call i32 @archive_entry_filetype(ptr noundef %15) #7
  %17 = icmp eq i32 %16, 16384
  br i1 %17, label %73, label %18

18:                                               ; preds = %14
  %19 = load ptr, ptr %1, align 8, !tbaa !28
  %20 = tail call i32 @archive_entry_filetype(ptr noundef %19) #7
  %21 = icmp eq i32 %20, 24576
  br i1 %21, label %73, label %22

22:                                               ; preds = %18
  %23 = load ptr, ptr %1, align 8, !tbaa !28
  %24 = tail call i32 @archive_entry_filetype(ptr noundef %23) #7
  %25 = icmp eq i32 %24, 8192
  br i1 %25, label %73, label %26

26:                                               ; preds = %22
  %27 = getelementptr inbounds nuw i8, ptr %0, i64 32
  %28 = load i32, ptr %27, align 8, !tbaa !14
  switch i32 %28, label %73 [
    i32 0, label %29
    i32 1, label %40
    i32 3, label %50
  ]

29:                                               ; preds = %26
  %30 = load ptr, ptr %1, align 8, !tbaa !28
  %31 = tail call fastcc ptr @find_entry(ptr noundef nonnull %0, ptr noundef %30)
  %.not54 = icmp eq ptr %31, null
  %32 = load ptr, ptr %1, align 8, !tbaa !28
  br i1 %.not54, label %38, label %33

33:                                               ; preds = %29
  tail call void @archive_entry_unset_size(ptr noundef %32) #7
  %34 = load ptr, ptr %1, align 8, !tbaa !28
  %35 = getelementptr inbounds nuw i8, ptr %31, i64 16
  %36 = load ptr, ptr %35, align 8, !tbaa !16
  %37 = tail call ptr @archive_entry_pathname(ptr noundef %36) #7
  tail call void @archive_entry_copy_hardlink(ptr noundef %34, ptr noundef %37) #7
  br label %73

38:                                               ; preds = %29
  %39 = tail call fastcc ptr @insert_entry(ptr noundef nonnull %0, ptr noundef %32)
  br label %73

40:                                               ; preds = %26
  %41 = load ptr, ptr %1, align 8, !tbaa !28
  %42 = tail call fastcc ptr @find_entry(ptr noundef nonnull %0, ptr noundef %41)
  %.not53 = icmp eq ptr %42, null
  %43 = load ptr, ptr %1, align 8, !tbaa !28
  br i1 %.not53, label %48, label %44

44:                                               ; preds = %40
  %45 = getelementptr inbounds nuw i8, ptr %42, i64 16
  %46 = load ptr, ptr %45, align 8, !tbaa !16
  %47 = tail call ptr @archive_entry_pathname(ptr noundef %46) #7
  tail call void @archive_entry_copy_hardlink(ptr noundef %43, ptr noundef %47) #7
  br label %73

48:                                               ; preds = %40
  %49 = tail call fastcc ptr @insert_entry(ptr noundef nonnull %0, ptr noundef %43)
  br label %73

50:                                               ; preds = %26
  %51 = load ptr, ptr %1, align 8, !tbaa !28
  %52 = tail call fastcc ptr @find_entry(ptr noundef nonnull %0, ptr noundef %51)
  %.not = icmp eq ptr %52, null
  %53 = load ptr, ptr %1, align 8, !tbaa !28
  br i1 %.not, label %67, label %54

54:                                               ; preds = %50
  %55 = getelementptr inbounds nuw i8, ptr %52, i64 24
  %56 = load ptr, ptr %55, align 8, !tbaa !19
  store ptr %56, ptr %1, align 8, !tbaa !28
  store ptr %53, ptr %55, align 8, !tbaa !19
  %57 = load ptr, ptr %1, align 8, !tbaa !28
  tail call void @archive_entry_unset_size(ptr noundef %57) #7
  %58 = load ptr, ptr %1, align 8, !tbaa !28
  %59 = getelementptr inbounds nuw i8, ptr %52, i64 16
  %60 = load ptr, ptr %59, align 8, !tbaa !16
  %61 = tail call ptr @archive_entry_pathname(ptr noundef %60) #7
  tail call void @archive_entry_copy_hardlink(ptr noundef %58, ptr noundef %61) #7
  %62 = getelementptr inbounds nuw i8, ptr %52, i64 40
  %63 = load i32, ptr %62, align 8, !tbaa !29
  %64 = icmp eq i32 %63, 0
  br i1 %64, label %65, label %73

65:                                               ; preds = %54
  %66 = load ptr, ptr %55, align 8, !tbaa !19
  store ptr %66, ptr %2, align 8, !tbaa !28
  store ptr null, ptr %55, align 8, !tbaa !19
  br label %73

67:                                               ; preds = %50
  %68 = tail call fastcc ptr @insert_entry(ptr noundef nonnull %0, ptr noundef %53)
  %69 = icmp eq ptr %68, null
  br i1 %69, label %73, label %70

70:                                               ; preds = %67
  %71 = load ptr, ptr %1, align 8, !tbaa !28
  %72 = getelementptr inbounds nuw i8, ptr %68, i64 24
  store ptr %71, ptr %72, align 8, !tbaa !19
  store ptr null, ptr %1, align 8, !tbaa !28
  br label %73

73:                                               ; preds = %26, %70, %65, %54, %67, %44, %48, %33, %38, %14, %18, %22, %11, %6, %8
  ret void
}